; Function Attrs: mustprogress nofree norecurse nosync nounwind willreturn memory(none) uwtable
define dso_local noundef ptr @_Z12lua_typenameP9lua_Statei(ptr noundef readnone captures(none) %0, i32 noundef %1) local_unnamed_addr #9 {
  %3 = icmp eq i32 %1, -1
  br i1 %3, label %8, label %4

4:                                                ; preds = %2
  %5 = sext i32 %1 to i64
  %6 = getelementptr inbounds [0 x ptr], ptr @luaT_typenames, i64 0, i64 %5
  %7 = load ptr, ptr %6, align 8, !tbaa !57
  br label %8

8:                                                ; preds = %2, %4
  %9 = phi ptr [ %7, %4 ], [ @.str.2, %2 ]
  ret ptr %9
}